target datalayout = "e-m:e-p270:32:32-p271:32:32-p272:64:64-i64:64-i128:128-f80:128-n8:16:32:64-S128"
target triple = "x86_64-pc-linux-gnu"

%struct._packet_info = type { ptr, ptr, i32, i32, %struct.nstime_t, %struct.nstime_t, %struct.nstime_t, i8, ptr, ptr, ptr, ptr, %struct._address, %struct._address, %struct._address, %struct._address, %struct._address, %struct._address, i32, ptr, i8, [3 x i8], %struct.anon.7, i32, i32, i32, i32, ptr, i8, ptr, ptr, i16, i16, i32, i32, i16, i32, i32, ptr, ptr, ptr, i8, i8, i16, i16, i16, i32, i16, i16, ptr, ptr, ptr, ptr, ptr, i32, i32 }
%struct.nstime_t = type { i64, i32 }
%struct._address = type { i32, i32, ptr, ptr }
%struct.anon.7 = type { i8, [3 x i8] }
%struct._e_guid_t = type { i32, i16, i16, [8 x i8] }
%struct._h225ras_call_t = type { i32, %struct._e_guid_t, i32, i32, %struct.nstime_t, i8, ptr }

; Function Attrs: null_pointer_is_valid sspstrong uwtable
define internal ptr @append_h225ras_call(ptr noundef %0, ptr noundef %1, ptr noundef %2, i32 noundef %3) #0 {
  %5 = alloca ptr, align 8
  %6 = alloca ptr, align 8
  %7 = alloca ptr, align 8
  %8 = alloca i32, align 4
  %9 = alloca ptr, align 8
  store ptr %0, ptr %5, align 8
  store ptr %1, ptr %6, align 8
  store ptr %2, ptr %7, align 8
  store i32 %3, ptr %8, align 4
  call void @llvm.lifetime.start.p0(i64 8, ptr %9) #11
  store ptr null, ptr %9, align 8
  %10 = call ptr @wmem_file_scope()
  %11 = call noalias ptr @wmem_alloc(ptr noundef %10, i64 noundef 64) #12
  store ptr %11, ptr %9, align 8
  %12 = load ptr, ptr %6, align 8
  %13 = getelementptr inbounds nuw %struct._packet_info, ptr %12, i32 0, i32 3
  %14 = load i32, ptr %13, align 4
  %15 = load ptr, ptr %9, align 8
  %16 = getelementptr inbounds nuw %struct._h225ras_call_t, ptr %15, i32 0, i32 2
  store i32 %14, ptr %16, align 4
  %17 = load ptr, ptr %9, align 8
  %18 = getelementptr inbounds nuw %struct._h225ras_call_t, ptr %17, i32 0, i32 3
  store i32 0, ptr %18, align 8
  %19 = load ptr, ptr %5, align 8
  %20 = getelementptr inbounds nuw %struct._h225ras_call_t, ptr %19, i32 0, i32 0
  %21 = load i32, ptr %20, align 8
  %22 = load ptr, ptr %9, align 8
  %23 = getelementptr inbounds nuw %struct._h225ras_call_t, ptr %22, i32 0, i32 0
  store i32 %21, ptr %23, align 8
  %24 = load ptr, ptr %9, align 8
  %25 = getelementptr inbounds nuw %struct._h225ras_call_t, ptr %24, i32 0, i32 5
  store i8 0, ptr %25, align 8
  %26 = load ptr, ptr %9, align 8
  %27 = getelementptr inbounds nuw %struct._h225ras_call_t, ptr %26, i32 0, i32 6
  store ptr null, ptr %27, align 8
  %28 = load ptr, ptr %9, align 8
  %29 = getelementptr inbounds nuw %struct._h225ras_call_t, ptr %28, i32 0, i32 4
  %30 = load ptr, ptr %6, align 8
  %31 = getelementptr inbounds nuw %struct._packet_info, ptr %30, i32 0, i32 4
  call void @llvm.memcpy.p0.p0.i64(ptr align 8 %29, ptr align 8 %31, i64 16, i1 false)
  %32 = load ptr, ptr %9, align 8
  %33 = getelementptr inbounds nuw %struct._h225ras_call_t, ptr %32, i32 0, i32 1
  %34 = load ptr, ptr %7, align 8
  call void @llvm.memcpy.p0.p0.i64(ptr align 4 %33, ptr align 4 %34, i64 16, i1 false)
  %35 = load ptr, ptr %9, align 8
  %36 = load ptr, ptr %5, align 8
  %37 = getelementptr inbounds nuw %struct._h225ras_call_t, ptr %36, i32 0, i32 6
  store ptr %35, ptr %37, align 8
  %38 = load ptr, ptr %9, align 8
  call void @llvm.lifetime.end.p0(i64 8, ptr %9) #11
  ret ptr %38
}