; Function Attrs: null_pointer_is_valid sspstrong uwtable
define internal fastcc noundef ptr @append_h225ras_call(ptr noundef nonnull captures(none) initializes((56, 64)) %0, ptr noundef readonly captures(none) %1, ptr noundef readonly captures(none) %2) unnamed_addr #0 {
  %4 = tail call ptr @wmem_file_scope()
  %5 = tail call noalias dereferenceable_or_null(64) ptr @wmem_alloc(ptr noundef %4, i64 noundef 64) #12
  %6 = getelementptr inbounds nuw i8, ptr %1, i64 20
  %7 = load i32, ptr %6, align 4
  %8 = getelementptr inbounds nuw i8, ptr %5, i64 20
  store i32 %7, ptr %8, align 4
  %9 = getelementptr inbounds nuw i8, ptr %5, i64 24
  store i32 0, ptr %9, align 8
  %10 = load i32, ptr %0, align 8
  store i32 %10, ptr %5, align 8
  %11 = getelementptr inbounds nuw i8, ptr %5, i64 48
  store i8 0, ptr %11, align 8
  %12 = getelementptr inbounds nuw i8, ptr %5, i64 56
  store ptr null, ptr %12, align 8
  %13 = getelementptr inbounds nuw i8, ptr %5, i64 32
  %14 = getelementptr inbounds nuw i8, ptr %1, i64 24
  tail call void @llvm.memcpy.p0.p0.i64(ptr noundef nonnull align 8 dereferenceable(16) %13, ptr noundef nonnull align 8 dereferenceable(16) %14, i64 16, i1 false)
  %15 = getelementptr inbounds nuw i8, ptr %5, i64 4
  tail call void @llvm.memcpy.p0.p0.i64(ptr noundef nonnull align 4 dereferenceable(16) %15, ptr noundef align 4 dereferenceable(16) %2, i64 16, i1 false)
  %16 = getelementptr inbounds nuw i8, ptr %0, i64 56
  store ptr %5, ptr %16, align 8
  ret ptr %5
}